Certificate:
    Data:
        Version: 3 (0x2)
        Serial Number: 3 (0x3)
    Signature Algorithm: sha256WithRSAEncryption
        Issuer: CN=default
        Validity
            Not Before: Oct 31 12:30:32 2016 GMT
            Not After : Oct 29 12:30:32 2026 GMT
        Subject: CN=device-2_susi-boltplus
        Subject Public Key Info:
            Public Key Algorithm: rsaEncryption
                Public-Key: (2048 bit)
                Modulus:
                    00:9b:97:85:7e:0a:66:f4:b7:24:e8:45:17:52:83:
                    df:05:ee:5c:99:8e:fc:6a:5c:89:df:99:ac:1c:d0:
                    7e:7d:24:b6:ad:54:56:33:86:3b:6c:88:09:16:9f:
                    7b:13:aa:81:7d:f2:15:42:34:cf:9d:cd:53:06:31:
                    2a:79:75:d9:8a:da:bc:4a:ff:5b:20:3b:0e:56:96:
                    98:5c:db:b3:00:f9:b7:99:85:5c:fb:88:54:6f:3a:
                    7f:dc:f4:8a:d1:b9:c9:ba:f8:86:0a:6d:11:4d:1a:
                    dc:67:c9:79:cf:3a:ea:2d:56:56:dd:0f:d9:6f:eb:
                    53:72:05:f8:82:be:a1:50:36:63:a3:6e:d8:a6:20:
                    5c:a1:19:d4:d1:89:04:01:cf:7d:5c:12:c0:b7:65:
                    b2:78:86:41:2e:d6:31:18:4f:79:e3:95:aa:1e:b6:
                    47:4e:d1:dd:8a:1c:23:0f:15:ff:f1:a2:4f:a8:58:
                    58:ec:0f:d5:dd:dc:bd:b4:b2:3d:0a:93:1e:01:7c:
                    4c:ab:17:9f:c3:d0:22:14:ea:b3:b9:e3:7a:f8:f3:
                    00:85:64:d3:6c:06:d7:d4:60:6f:56:57:42:60:08:
                    41:cc:5e:ea:a6:04:88:61:65:65:e8:00:89:81:02:
                    0a:51:84:08:9a:80:46:81:8d:a5:89:9d:01:a0:24:
                    cc:f9
                Exponent: 65537 (0x10001)
        X509v3 extensions:
            X509v3 Basic Constraints: 
                CA:FALSE
            X509v3 Subject Key Identifier: 
                84:4A:1E:DC:2C:83:83:34:A9:1F:15:DC:80:92:6B:0B:64:A4:76:80
            X509v3 Authority Key Identifier: 
                keyid:B8:03:5E:80:C7:F2:0F:B4:E9:7B:98:1F:91:11:B7:7E:D7:11:EE:4D
                DirName:/CN=default
                serial:9B:04:19:05:C6:0C:DD:02

            X509v3 Extended Key Usage: 
                TLS Web Client Authentication
            X509v3 Key Usage: 
                Digital Signature
    Signature Algorithm: sha256WithRSAEncryption
         2a:95:ed:d9:f2:92:60:39:55:c0:d7:e0:21:0b:19:0f:45:cc:
         71:6e:bd:2f:0d:87:8b:a7:bf:60:6a:bb:f5:92:49:03:44:f6:
         df:95:15:b2:21:a2:5f:d3:bc:9d:11:07:eb:ae:37:95:d3:2c:
         72:b6:21:53:76:33:2d:d0:c8:67:96:82:8a:03:d7:f7:42:12:
         f8:60:c0:d0:c4:96:0f:f8:ca:21:cb:63:f0:f8:6f:cc:82:b2:
         60:70:e5:a5:75:cb:b3:14:3c:82:f7:5b:51:93:00:53:4f:90:
         0b:81:7f:4c:92:49:fc:13:9b:57:6c:c9:94:8b:59:33:a8:06:
         67:bf:26:44:20:bd:cb:4d:b7:1a:38:44:43:23:98:4d:60:f5:
         a6:6e:2e:af:37:bf:ee:13:f4:37:17:14:11:c5:8a:9d:1c:cf:
         40:c3:53:67:f5:c7:37:c3:6f:35:c1:39:7c:23:23:9a:63:14:
         fa:96:54:58:45:d1:bc:4d:05:39:4f:95:9a:d8:e2:2c:39:d3:
         6c:56:96:1e:d5:2e:bd:78:f9:0f:a7:bf:46:c3:5b:d9:44:7f:
         8f:b5:69:aa:58:ae:44:bb:c8:aa:06:b0:90:46:bf:ef:4d:40:
         cb:dd:28:0c:cd:d1:58:f4:b6:91:4f:10:8c:90:5a:5b:5c:d8:
         61:80:22:65
-----BEGIN CERTIFICATE-----
MIIDQjCCAiqgAwIBAgIBAzANBgkqhkiG9w0BAQsFADASMRAwDgYDVQQDDAdkZWZh
dWx0MB4XDTE2MTAzMTEyMzAzMloXDTI2MTAyOTEyMzAzMlowITEfMB0GA1UEAwwW
ZGV2aWNlLTJfc3VzaS1ib2x0cGx1czCCASIwDQYJKoZIhvcNAQEBBQADggEPADCC
AQoCggEBAJuXhX4KZvS3JOhFF1KD3wXuXJmO/Gpcid+ZrBzQfn0ktq1UVjOGO2yI
CRafexOqgX3yFUI0z53NUwYxKnl12YravEr/WyA7DlaWmFzbswD5t5mFXPuIVG86
f9z0itG5ybr4hgptEU0a3GfJec866i1WVt0P2W/rU3IF+IK+oVA2Y6Nu2KYgXKEZ
1NGJBAHPfVwSwLdlsniGQS7WMRhPeeOVqh62R07R3YocIw8V//GiT6hYWOwP1d3c
vbSyPQqTHgF8TKsXn8PQIhTqs7njevjzAIVk02wG19Rgb1ZXQmAIQcxe6qYEiGFl
ZegAiYECClGECJqARoGNpYmdAaAkzPkCAwEAAaOBkzCBkDAJBgNVHRMEAjAAMB0G
A1UdDgQWBBSESh7cLIODNKkfFdyAkmsLZKR2gDBCBgNVHSMEOzA5gBS4A16Ax/IP
tOl7mB+REbd+1xHuTaEWpBQwEjEQMA4GA1UEAwwHZGVmYXVsdIIJAJsEGQXGDN0C
MBMGA1UdJQQMMAoGCCsGAQUFBwMCMAsGA1UdDwQEAwIHgDANBgkqhkiG9w0BAQsF
AAOCAQEAKpXt2fKSYDlVwNfgIQsZD0XMcW69Lw2Hi6e/YGq79ZJJA0T235UVsiGi
X9O8nREH6643ldMscrYhU3YzLdDIZ5aCigPX90IS+GDA0MSWD/jKIctj8PhvzIKy
YHDlpXXLsxQ8gvdbUZMAU0+QC4F/TJJJ/BObV2zJlItZM6gGZ78mRCC9y023GjhE
QyOYTWD1pm4urze/7hP0NxcUEcWKnRzPQMNTZ/XHN8NvNcE5fCMjmmMU+pZUWEXR
vE0FOU+VmtjiLDnTbFaWHtUuvXj5D6e/RsNb2UR/j7VpqliuRLvIqgawkEa/701A
y90oDM3RWPS2kU8QjJBaW1zYYYAiZQ==
-----END CERTIFICATE-----
