Certificate:
    Data:
        Version: 3 (0x2)
        Serial Number: 2 (0x2)
    Signature Algorithm: sha256WithRSAEncryption
        Issuer: CN=default
        Validity
            Not Before: Oct 31 12:30:27 2016 GMT
            Not After : Oct 29 12:30:27 2026 GMT
        Subject: CN=device-2_susi-core
        Subject Public Key Info:
            Public Key Algorithm: rsaEncryption
                Public-Key: (2048 bit)
                Modulus:
                    00:da:e2:16:68:05:69:c3:7e:d3:a8:d1:c8:5d:6a:
                    14:41:2c:07:cf:33:83:4d:ab:ee:47:71:46:50:4a:
                    eb:59:2f:2d:b7:6e:6d:36:c0:32:a5:61:91:f2:1c:
                    5f:cd:2f:e1:18:e5:f3:cf:71:20:96:94:e9:c6:a6:
                    2f:4d:fc:77:f0:79:33:9c:9b:86:79:2c:f7:5b:da:
                    b3:1b:9f:04:3f:ab:92:3b:07:e3:2d:29:38:b4:6c:
                    82:f2:af:71:86:8c:6f:93:92:ff:2e:55:7a:85:87:
                    01:04:f4:c5:1c:19:ac:a1:30:53:13:ac:02:0f:75:
                    2b:64:7d:28:23:00:5f:e9:8f:74:c2:a1:45:ac:4e:
                    7a:c9:f2:a3:68:e3:49:ba:f1:7e:cd:d7:97:12:7e:
                    c4:af:b2:23:2a:bf:19:f4:77:8e:48:61:6c:0e:5b:
                    5b:74:36:f5:75:06:be:58:18:b0:89:b4:f5:29:2c:
                    1d:9d:b4:fa:b1:3d:30:f7:53:99:27:79:40:47:47:
                    54:72:bb:04:19:c9:48:43:a2:23:81:47:2b:4d:30:
                    50:fd:e5:ad:3d:a6:17:22:3a:61:fd:ce:40:5b:b9:
                    49:b8:93:4d:93:e7:1a:3e:c9:81:4c:79:8d:63:d1:
                    20:57:0e:82:31:1c:12:85:3f:e8:b4:96:4c:bf:97:
                    ef:23
                Exponent: 65537 (0x10001)
        X509v3 extensions:
            X509v3 Basic Constraints: 
                CA:FALSE
            X509v3 Subject Key Identifier: 
                AE:10:BD:1A:A0:2E:BD:28:C3:AF:20:FE:F0:09:47:76:F5:25:F9:F3
            X509v3 Authority Key Identifier: 
                keyid:B8:03:5E:80:C7:F2:0F:B4:E9:7B:98:1F:91:11:B7:7E:D7:11:EE:4D
                DirName:/CN=default
                serial:9B:04:19:05:C6:0C:DD:02

            X509v3 Extended Key Usage: 
                TLS Web Client Authentication
            X509v3 Key Usage: 
                Digital Signature
    Signature Algorithm: sha256WithRSAEncryption
         86:58:96:0c:cd:10:34:27:08:08:d3:4e:13:80:64:48:8e:48:
         47:1b:a5:78:e5:58:8f:d9:e4:b3:65:1c:00:a3:aa:04:6e:b5:
         11:a9:7a:ae:5f:8f:30:2a:1b:70:ee:56:0f:8c:b1:96:c8:d4:
         61:8f:96:57:b8:b9:c2:30:ad:55:13:4e:1f:de:f1:f9:6f:fd:
         87:46:d0:8c:8d:bc:f1:f0:34:83:10:c2:16:88:3c:4e:44:6a:
         d1:a0:dd:ba:25:49:85:44:d1:1d:4a:ff:87:0f:9b:5e:c1:87:
         d0:0d:cb:8f:24:42:1b:76:da:00:10:0e:fb:66:f6:f1:f5:c3:
         bc:55:b9:14:bd:1c:bd:42:58:8f:9f:06:81:66:c6:74:43:a4:
         17:6d:4b:ab:18:ee:b9:6d:8b:99:1c:56:ce:85:08:4b:cd:e8:
         28:2f:0a:a1:1d:c1:8a:59:f1:22:b8:88:c6:22:61:f2:9b:b4:
         7f:32:fc:7b:8b:c9:e3:f7:18:64:f7:99:fc:cd:08:9d:02:2a:
         d9:d7:cb:89:db:62:5e:83:6f:0e:ab:0f:21:40:ec:6c:05:b9:
         d5:b5:94:ef:d8:cb:5f:fe:f3:13:ff:af:60:c8:13:56:db:02:
         1b:f0:2d:70:f0:2a:5f:5a:70:3c:e3:87:3f:6b:30:0a:0f:a7:
         53:73:15:40
-----BEGIN CERTIFICATE-----
MIIDPjCCAiagAwIBAgIBAjANBgkqhkiG9w0BAQsFADASMRAwDgYDVQQDDAdkZWZh
dWx0MB4XDTE2MTAzMTEyMzAyN1oXDTI2MTAyOTEyMzAyN1owHTEbMBkGA1UEAwwS
ZGV2aWNlLTJfc3VzaS1jb3JlMIIBIjANBgkqhkiG9w0BAQEFAAOCAQ8AMIIBCgKC
AQEA2uIWaAVpw37TqNHIXWoUQSwHzzODTavuR3FGUErrWS8tt25tNsAypWGR8hxf
zS/hGOXzz3EglpTpxqYvTfx38HkznJuGeSz3W9qzG58EP6uSOwfjLSk4tGyC8q9x
hoxvk5L/LlV6hYcBBPTFHBmsoTBTE6wCD3UrZH0oIwBf6Y90wqFFrE56yfKjaONJ
uvF+zdeXEn7Er7IjKr8Z9HeOSGFsDltbdDb1dQa+WBiwibT1KSwdnbT6sT0w91OZ
J3lAR0dUcrsEGclIQ6IjgUcrTTBQ/eWtPaYXIjph/c5AW7lJuJNNk+caPsmBTHmN
Y9EgVw6CMRwShT/otJZMv5fvIwIDAQABo4GTMIGQMAkGA1UdEwQCMAAwHQYDVR0O
BBYEFK4QvRqgLr0ow68g/vAJR3b1JfnzMEIGA1UdIwQ7MDmAFLgDXoDH8g+06XuY
H5ERt37XEe5NoRakFDASMRAwDgYDVQQDDAdkZWZhdWx0ggkAmwQZBcYM3QIwEwYD
VR0lBAwwCgYIKwYBBQUHAwIwCwYDVR0PBAQDAgeAMA0GCSqGSIb3DQEBCwUAA4IB
AQCGWJYMzRA0JwgI004TgGRIjkhHG6V45ViP2eSzZRwAo6oEbrURqXquX48wKhtw
7lYPjLGWyNRhj5ZXuLnCMK1VE04f3vH5b/2HRtCMjbzx8DSDEMIWiDxORGrRoN26
JUmFRNEdSv+HD5tewYfQDcuPJEIbdtoAEA77Zvbx9cO8VbkUvRy9QliPnwaBZsZ0
Q6QXbUurGO65bYuZHFbOhQhLzegoLwqhHcGKWfEiuIjGImHym7R/Mvx7i8nj9xhk
95n8zQidAirZ18uJ22Jeg28Oqw8hQOxsBbnVtZTv2Mtf/vMT/69gyBNW2wIb8C1w
8CpfWnA844c/azAKD6dTcxVA
-----END CERTIFICATE-----
